; Function Attrs: nounwind uwtable
define ptr @l_Array_foldlMUnsafe_fold___at_Lake_Toml_decodeArray___spec__1___rarg(ptr noundef %0, ptr noundef readonly captures(none) %1, i64 noundef %2, i64 noundef %3, ptr noundef %4, ptr noundef %5) local_unnamed_addr #0 {
  %.not38 = icmp eq i64 %2, %3
  br i1 %.not38, label %._crit_edge, label %.lr.ph

.lr.ph:                                           ; preds = %6
  %7 = getelementptr inbounds nuw i8, ptr %1, i64 24
  %8 = ptrtoint ptr %0 to i64
  %9 = and i64 %8, 1
  %.not36 = icmp eq i64 %9, 0
  br i1 %.not36, label %.lr.ph.split.us, label %.lr.ph.split

.lr.ph.split.us:                                  ; preds = %.lr.ph, %27
  %.02240.us = phi i64 [ %35, %27 ], [ %2, %.lr.ph ]
  %.02439.us = phi ptr [ %25, %27 ], [ %4, %.lr.ph ]
  %10 = getelementptr inbounds nuw [0 x ptr], ptr %7, i64 0, i64 %.02240.us
  %11 = load ptr, ptr %10, align 8, !tbaa !9
  %12 = ptrtoint ptr %11 to i64
  %13 = and i64 %12, 1
  %.not.i26.us = icmp eq i64 %13, 0
  br i1 %.not.i26.us, label %14, label %lean_array_uget.exit.us

14:                                               ; preds = %.lr.ph.split.us
  %.val.i.i.us = load i32, ptr %11, align 4, !tbaa !4
  %15 = icmp sgt i32 %.val.i.i.us, 0
  br i1 %15, label %18, label %16, !prof !13

16:                                               ; preds = %14
  %.not.i.i.us = icmp eq i32 %.val.i.i.us, 0
  br i1 %.not.i.i.us, label %lean_array_uget.exit.us, label %17

17:                                               ; preds = %16
  tail call void @lean_inc_ref_cold(ptr noundef nonnull %11) #4
  br label %lean_array_uget.exit.us

18:                                               ; preds = %14
  %19 = add nuw i32 %.val.i.i.us, 1
  store i32 %19, ptr %11, align 4, !tbaa !4
  br label %lean_array_uget.exit.us

lean_array_uget.exit.us:                          ; preds = %18, %17, %16, %.lr.ph.split.us
  %.val.i.us = load i32, ptr %0, align 4, !tbaa !4
  %20 = icmp sgt i32 %.val.i.us, 0
  br i1 %20, label %23, label %21, !prof !13

21:                                               ; preds = %lean_array_uget.exit.us
  %.not.i27.us = icmp eq i32 %.val.i.us, 0
  br i1 %.not.i27.us, label %lean_inc.exit.us, label %22

22:                                               ; preds = %21
  tail call void @lean_inc_ref_cold(ptr noundef nonnull %0) #4
  br label %lean_inc.exit.us

23:                                               ; preds = %lean_array_uget.exit.us
  %24 = add nuw i32 %.val.i.us, 1
  store i32 %24, ptr %0, align 4, !tbaa !4
  br label %lean_inc.exit.us

lean_inc.exit.us:                                 ; preds = %23, %22, %21
  tail call void @lean_inc_heartbeat() #4
  %25 = tail call noalias ptr @mi_malloc_small(i64 noundef 48) #4
  %26 = icmp eq ptr %25, null
  br i1 %26, label %.split.us, label %27

27:                                               ; preds = %lean_inc.exit.us
  %28 = getelementptr inbounds nuw i8, ptr %25, i64 4
  store i32 1, ptr %25, align 4, !tbaa !4
  store i32 -184549328, ptr %28, align 4
  %29 = getelementptr inbounds nuw i8, ptr %25, i64 8
  store ptr @l_Array_foldlMUnsafe_fold___at_Lake_Toml_decodeArray___spec__1___rarg___lambda__1, ptr %29, align 8, !tbaa !9
  %30 = getelementptr inbounds nuw i8, ptr %25, i64 16
  store i16 4, ptr %30, align 8, !tbaa !11
  %31 = getelementptr inbounds nuw i8, ptr %25, i64 18
  store i16 3, ptr %31, align 2, !tbaa !11
  %32 = getelementptr inbounds nuw i8, ptr %25, i64 24
  store ptr %0, ptr %32, align 8, !tbaa !9
  %33 = getelementptr inbounds nuw i8, ptr %25, i64 32
  store ptr %11, ptr %33, align 8, !tbaa !9
  %34 = getelementptr inbounds nuw i8, ptr %25, i64 40
  store ptr %.02439.us, ptr %34, align 8, !tbaa !9
  %35 = add i64 %.02240.us, 1
  %.not.us = icmp eq i64 %35, %3
  br i1 %.not.us, label %._crit_edge.thread, label %.lr.ph.split.us

.lr.ph.split:                                     ; preds = %.lr.ph, %55
  %.02240 = phi i64 [ %63, %55 ], [ %2, %.lr.ph ]
  %.02439 = phi ptr [ %46, %55 ], [ %4, %.lr.ph ]
  %36 = getelementptr inbounds nuw [0 x ptr], ptr %7, i64 0, i64 %.02240
  %37 = load ptr, ptr %36, align 8, !tbaa !9
  %38 = ptrtoint ptr %37 to i64
  %39 = and i64 %38, 1
  %.not.i26 = icmp eq i64 %39, 0
  br i1 %.not.i26, label %40, label %lean_array_uget.exit

40:                                               ; preds = %.lr.ph.split
  %.val.i.i = load i32, ptr %37, align 4, !tbaa !4
  %41 = icmp sgt i32 %.val.i.i, 0
  br i1 %41, label %42, label %44, !prof !13

42:                                               ; preds = %40
  %43 = add nuw i32 %.val.i.i, 1
  store i32 %43, ptr %37, align 4, !tbaa !4
  br label %lean_array_uget.exit

44:                                               ; preds = %40
  %.not.i.i = icmp eq i32 %.val.i.i, 0
  br i1 %.not.i.i, label %lean_array_uget.exit, label %45

45:                                               ; preds = %44
  tail call void @lean_inc_ref_cold(ptr noundef nonnull %37) #4
  br label %lean_array_uget.exit

lean_array_uget.exit:                             ; preds = %.lr.ph.split, %42, %44, %45
  tail call void @lean_inc_heartbeat() #4
  %46 = tail call noalias ptr @mi_malloc_small(i64 noundef 48) #4
  %47 = icmp eq ptr %46, null
  br i1 %47, label %.split.us, label %55

.split.us:                                        ; preds = %lean_array_uget.exit, %lean_inc.exit.us
  tail call void @lean_internal_panic_out_of_memory() #5
  unreachable

._crit_edge:                                      ; preds = %6
  %.pre = ptrtoint ptr %0 to i64
  %.pre45 = and i64 %.pre, 1
  %48 = icmp eq i64 %.pre45, 0
  br i1 %48, label %._crit_edge.thread, label %._crit_edge.thread51

._crit_edge.thread:                               ; preds = %27, %._crit_edge
  %.024.lcssa50 = phi ptr [ %4, %._crit_edge ], [ %25, %27 ]
  %49 = load i32, ptr %0, align 4, !tbaa !4
  %50 = icmp sgt i32 %49, 1
  br i1 %50, label %51, label %53, !prof !13

51:                                               ; preds = %._crit_edge.thread
  %52 = add nsw i32 %49, -1
  store i32 %52, ptr %0, align 4, !tbaa !4
  br label %._crit_edge.thread51

53:                                               ; preds = %._crit_edge.thread
  %.not.i = icmp eq i32 %49, 0
  br i1 %.not.i, label %._crit_edge.thread51, label %54

54:                                               ; preds = %53
  tail call void @lean_dec_ref_cold(ptr noundef nonnull %0) #4
  br label %._crit_edge.thread51

55:                                               ; preds = %lean_array_uget.exit
  %56 = getelementptr inbounds nuw i8, ptr %46, i64 4
  store i32 1, ptr %46, align 4, !tbaa !4
  store i32 -184549328, ptr %56, align 4
  %57 = getelementptr inbounds nuw i8, ptr %46, i64 8
  store ptr @l_Array_foldlMUnsafe_fold___at_Lake_Toml_decodeArray___spec__1___rarg___lambda__1, ptr %57, align 8, !tbaa !9
  %58 = getelementptr inbounds nuw i8, ptr %46, i64 16
  store i16 4, ptr %58, align 8, !tbaa !11
  %59 = getelementptr inbounds nuw i8, ptr %46, i64 18
  store i16 3, ptr %59, align 2, !tbaa !11
  %60 = getelementptr inbounds nuw i8, ptr %46, i64 24
  store ptr %0, ptr %60, align 8, !tbaa !9
  %61 = getelementptr inbounds nuw i8, ptr %46, i64 32
  store ptr %37, ptr %61, align 8, !tbaa !9
  %62 = getelementptr inbounds nuw i8, ptr %46, i64 40
  store ptr %.02439, ptr %62, align 8, !tbaa !9
  %63 = add i64 %.02240, 1
  %.not = icmp eq i64 %63, %3
  br i1 %.not, label %._crit_edge.thread51, label %.lr.ph.split

._crit_edge.thread51:                             ; preds = %55, %._crit_edge, %51, %53, %54
  %.024.lcssa49 = phi ptr [ %4, %._crit_edge ], [ %.024.lcssa50, %51 ], [ %.024.lcssa50, %53 ], [ %.024.lcssa50, %54 ], [ %46, %55 ]
  %64 = tail call ptr @lean_apply_1(ptr noundef %.024.lcssa49, ptr noundef %5) #4
  ret ptr %64
}